target datalayout = "e-m:e-p270:32:32-p271:32:32-p272:64:64-i64:64-i128:128-f80:128-n8:16:32:64-S128"
target triple = "x86_64-pc-linux-gnu"

%struct.tjscalingfactor = type { i32, i32 }
%struct.tjregion = type { i32, i32, i32, i32 }
%struct._tjinstance = type { %struct.jpeg_compress_struct, %struct.jpeg_decompress_struct, %struct.my_error_mgr, i32, [200 x i8], i32, i32, i32, i32, i32, i32, i32, i32, i32, i32, i32, i32, i32, i32, i32, i32, i32, i32, i32, i32, i32, i32, i32, %struct.tjscalingfactor, %struct.tjregion, i32, i32 }
%struct.jpeg_compress_struct = type { ptr, ptr, ptr, ptr, i32, i32, ptr, i32, i32, i32, i32, double, i32, i32, i32, ptr, [4 x ptr], [4 x ptr], [4 x ptr], [16 x i8], [16 x i8], [16 x i8], i32, ptr, i32, i32, i32, i32, i32, i32, i32, i32, i32, i8, i8, i8, i16, i16, i32, i32, i32, i32, i32, i32, i32, [4 x ptr], i32, i32, i32, [10 x i32], i32, i32, i32, i32, ptr, ptr, ptr, ptr, ptr, ptr, ptr, ptr, ptr, ptr, i32 }
%struct.jpeg_decompress_struct = type { ptr, ptr, ptr, ptr, i32, i32, ptr, i32, i32, i32, i32, i32, i32, i32, double, i32, i32, i32, i32, i32, i32, i32, i32, i32, i32, i32, i32, i32, i32, i32, i32, i32, i32, ptr, i32, i32, i32, i32, i32, ptr, [4 x ptr], [4 x ptr], [4 x ptr], i32, ptr, i32, i32, [16 x i8], [16 x i8], [16 x i8], i32, i32, i8, i8, i8, i16, i16, i32, i8, i32, ptr, i32, i32, i32, i32, ptr, i32, [4 x ptr], i32, i32, i32, [10 x i32], i32, i32, i32, i32, i32, ptr, ptr, ptr, ptr, ptr, ptr, ptr, ptr, ptr, ptr, ptr }
%struct.my_error_mgr = type { %struct.jpeg_error_mgr, [1 x %struct.__jmp_buf_tag], ptr, i32, i32 }
%struct.jpeg_error_mgr = type { ptr, ptr, ptr, ptr, ptr, i32, %union.anon, i32, i64, ptr, i32, ptr, i32, i32 }
%union.anon = type { [8 x i32], [48 x i8] }
%struct.__jmp_buf_tag = type { [8 x i64], i32, %struct.__sigset_t }
%struct.__sigset_t = type { [16 x i64] }

@.str = private unnamed_addr constant [9 x i8] c"%s(): %s\00", align 1
@.str.1 = private unnamed_addr constant [17 x i8] c"Invalid argument\00", align 1
@.str.4 = private unnamed_addr constant [21 x i8] c"%s(): Invalid handle\00", align 1
@tjEncodeYUVPlanes.FUNCTION_NAME = internal constant [18 x i8] c"tjEncodeYUVPlanes\00", align 16
@.str.123 = private unnamed_addr constant [15 x i8] c"JSIMD_FORCEMMX\00", align 1
@.str.124 = private unnamed_addr constant [2 x i8] c"1\00", align 1
@.str.125 = private unnamed_addr constant [15 x i8] c"JSIMD_FORCESSE\00", align 1
@.str.126 = private unnamed_addr constant [16 x i8] c"JSIMD_FORCESSE2\00", align 1

; Function Attrs: nounwind uwtable
define internal void @processFlags(ptr noundef %0, i32 noundef %1, i32 noundef %2) #0 {
  %4 = alloca i32, align 4
  %5 = alloca ptr, align 8
  %6 = alloca ptr, align 8
  %7 = alloca i32, align 4
  %8 = alloca ptr, align 8
  %9 = alloca ptr, align 8
  %10 = alloca i32, align 4
  %11 = alloca ptr, align 8
  %12 = alloca ptr, align 8
  %13 = alloca ptr, align 8
  %14 = alloca i32, align 4
  %15 = alloca i32, align 4
  %16 = alloca ptr, align 8
  store ptr %0, ptr %13, align 8
  store i32 %1, ptr %14, align 4
  store i32 %2, ptr %15, align 4
  %17 = load ptr, ptr %13, align 8
  store ptr %17, ptr %16, align 8
  %18 = load i32, ptr %14, align 4
  %19 = and i32 %18, 2
  %20 = icmp ne i32 %19, 0
  %21 = xor i1 %20, true
  %22 = xor i1 %21, true
  %23 = zext i1 %22 to i32
  %24 = load ptr, ptr %16, align 8
  %25 = getelementptr inbounds %struct._tjinstance, ptr %24, i32 0, i32 6
  store i32 %23, ptr %25, align 8
  %26 = load i32, ptr %14, align 4
  %27 = and i32 %26, 8
  %28 = icmp ne i32 %27, 0
  br i1 %28, label %29, label %44

29:                                               ; preds = %3
  store ptr @.str.123, ptr %5, align 8
  store ptr @.str.124, ptr %6, align 8
  %30 = load ptr, ptr %5, align 8
  %31 = icmp ne ptr %30, null
  br i1 %31, label %32, label %35

32:                                               ; preds = %29
  %33 = load ptr, ptr %6, align 8
  %34 = icmp ne ptr %33, null
  br i1 %34, label %37, label %35

35:                                               ; preds = %32, %29
  %36 = call ptr @__errno_location() #16
  store i32 22, ptr %36, align 4
  store i32 22, ptr %4, align 4
  br label %43

37:                                               ; preds = %32
  %38 = load ptr, ptr %5, align 8
  %39 = load ptr, ptr %6, align 8
  %40 = call i32 @setenv(ptr noundef %38, ptr noundef %39, i32 noundef 1) #11
  %41 = call ptr @__errno_location() #16
  %42 = load i32, ptr %41, align 4
  store i32 %42, ptr %4, align 4
  br label %43

43:                                               ; preds = %37, %35
  br label %84

44:                                               ; preds = %3
  %45 = load i32, ptr %14, align 4
  %46 = and i32 %45, 16
  %47 = icmp ne i32 %46, 0
  br i1 %47, label %48, label %63

48:                                               ; preds = %44
  store ptr @.str.125, ptr %8, align 8
  store ptr @.str.124, ptr %9, align 8
  %49 = load ptr, ptr %8, align 8
  %50 = icmp ne ptr %49, null
  br i1 %50, label %51, label %54

51:                                               ; preds = %48
  %52 = load ptr, ptr %9, align 8
  %53 = icmp ne ptr %52, null
  br i1 %53, label %56, label %54

54:                                               ; preds = %51, %48
  %55 = call ptr @__errno_location() #16
  store i32 22, ptr %55, align 4
  store i32 22, ptr %7, align 4
  br label %62

56:                                               ; preds = %51
  %57 = load ptr, ptr %8, align 8
  %58 = load ptr, ptr %9, align 8
  %59 = call i32 @setenv(ptr noundef %57, ptr noundef %58, i32 noundef 1) #11
  %60 = call ptr @__errno_location() #16
  %61 = load i32, ptr %60, align 4
  store i32 %61, ptr %7, align 4
  br label %62

62:                                               ; preds = %56, %54
  br label %83

63:                                               ; preds = %44
  %64 = load i32, ptr %14, align 4
  %65 = and i32 %64, 32
  %66 = icmp ne i32 %65, 0
  br i1 %66, label %67, label %82

67:                                               ; preds = %63
  store ptr @.str.126, ptr %11, align 8
  store ptr @.str.124, ptr %12, align 8
  %68 = load ptr, ptr %11, align 8
  %69 = icmp ne ptr %68, null
  br i1 %69, label %70, label %73

70:                                               ; preds = %67
  %71 = load ptr, ptr %12, align 8
  %72 = icmp ne ptr %71, null
  br i1 %72, label %75, label %73

73:                                               ; preds = %70, %67
  %74 = call ptr @__errno_location() #16
  store i32 22, ptr %74, align 4
  store i32 22, ptr %10, align 4
  br label %81

75:                                               ; preds = %70
  %76 = load ptr, ptr %11, align 8
  %77 = load ptr, ptr %12, align 8
  %78 = call i32 @setenv(ptr noundef %76, ptr noundef %77, i32 noundef 1) #11
  %79 = call ptr @__errno_location() #16
  %80 = load i32, ptr %79, align 4
  store i32 %80, ptr %10, align 4
  br label %81

81:                                               ; preds = %75, %73
  br label %82

82:                                               ; preds = %81, %63
  br label %83

83:                                               ; preds = %82, %62
  br label %84

84:                                               ; preds = %83, %43
  %85 = load i32, ptr %14, align 4
  %86 = and i32 %85, 256
  %87 = icmp ne i32 %86, 0
  %88 = xor i1 %87, true
  %89 = xor i1 %88, true
  %90 = zext i1 %89 to i32
  %91 = load ptr, ptr %16, align 8
  %92 = getelementptr inbounds %struct._tjinstance, ptr %91, i32 0, i32 14
  store i32 %90, ptr %92, align 8
  %93 = load i32, ptr %14, align 4
  %94 = and i32 %93, 1024
  %95 = icmp ne i32 %94, 0
  %96 = xor i1 %95, true
  %97 = xor i1 %96, true
  %98 = zext i1 %97 to i32
  %99 = load ptr, ptr %16, align 8
  %100 = getelementptr inbounds %struct._tjinstance, ptr %99, i32 0, i32 7
  store i32 %98, ptr %100, align 4
  %101 = load i32, ptr %15, align 4
  %102 = icmp eq i32 %101, 1
  br i1 %102, label %103, label %119

103:                                              ; preds = %84
  %104 = load ptr, ptr %16, align 8
  %105 = getelementptr inbounds %struct._tjinstance, ptr %104, i32 0, i32 8
  %106 = load i32, ptr %105, align 8
  %107 = icmp sge i32 %106, 96
  br i1 %107, label %112, label %108

108:                                              ; preds = %103
  %109 = load i32, ptr %14, align 4
  %110 = and i32 %109, 4096
  %111 = icmp ne i32 %110, 0
  br i1 %111, label %112, label %115

112:                                              ; preds = %108, %103
  %113 = load ptr, ptr %16, align 8
  %114 = getelementptr inbounds %struct._tjinstance, ptr %113, i32 0, i32 15
  store i32 0, ptr %114, align 4
  br label %118

115:                                              ; preds = %108
  %116 = load ptr, ptr %16, align 8
  %117 = getelementptr inbounds %struct._tjinstance, ptr %116, i32 0, i32 15
  store i32 1, ptr %117, align 4
  br label %118

118:                                              ; preds = %115, %112
  br label %128

119:                                              ; preds = %84
  %120 = load i32, ptr %14, align 4
  %121 = and i32 %120, 2048
  %122 = icmp ne i32 %121, 0
  %123 = xor i1 %122, true
  %124 = xor i1 %123, true
  %125 = zext i1 %124 to i32
  %126 = load ptr, ptr %16, align 8
  %127 = getelementptr inbounds %struct._tjinstance, ptr %126, i32 0, i32 15
  store i32 %125, ptr %127, align 4
  br label %128

128:                                              ; preds = %119, %118
  %129 = load i32, ptr %14, align 4
  %130 = and i32 %129, 8192
  %131 = icmp ne i32 %130, 0
  %132 = xor i1 %131, true
  %133 = xor i1 %132, true
  %134 = zext i1 %133 to i32
  %135 = load ptr, ptr %16, align 8
  %136 = getelementptr inbounds %struct._tjinstance, ptr %135, i32 0, i32 2
  %137 = getelementptr inbounds %struct.my_error_mgr, ptr %136, i32 0, i32 4
  store i32 %134, ptr %137, align 4
  %138 = load i32, ptr %14, align 4
  %139 = and i32 %138, 16384
  %140 = icmp ne i32 %139, 0
  %141 = xor i1 %140, true
  %142 = xor i1 %141, true
  %143 = zext i1 %142 to i32
  %144 = load ptr, ptr %16, align 8
  %145 = getelementptr inbounds %struct._tjinstance, ptr %144, i32 0, i32 17
  store i32 %143, ptr %145, align 4
  %146 = load i32, ptr %14, align 4
  %147 = and i32 %146, 32768
  %148 = icmp ne i32 %147, 0
  br i1 %148, label %149, label %152

149:                                              ; preds = %128
  %150 = load ptr, ptr %16, align 8
  %151 = getelementptr inbounds %struct._tjinstance, ptr %150, i32 0, i32 18
  store i32 500, ptr %151, align 8
  br label %152

152:                                              ; preds = %149, %128
  ret void
}

; Function Attrs: nounwind uwtable
define i32 @tjEncodeYUVPlanes(ptr noundef %0, ptr noundef %1, i32 noundef %2, i32 noundef %3, i32 noundef %4, i32 noundef %5, ptr noundef %6, ptr noundef %7, i32 noundef %8, i32 noundef %9) #0 {
  %11 = alloca i32, align 4
  %12 = alloca ptr, align 8
  %13 = alloca ptr, align 8
  %14 = alloca i32, align 4
  %15 = alloca i32, align 4
  %16 = alloca i32, align 4
  %17 = alloca i32, align 4
  %18 = alloca ptr, align 8
  %19 = alloca ptr, align 8
  %20 = alloca i32, align 4
  %21 = alloca i32, align 4
  %22 = alloca i32, align 4
  %23 = alloca ptr, align 8
  store ptr %0, ptr %12, align 8
  store ptr %1, ptr %13, align 8
  store i32 %2, ptr %14, align 4
  store i32 %3, ptr %15, align 4
  store i32 %4, ptr %16, align 4
  store i32 %5, ptr %17, align 4
  store ptr %6, ptr %18, align 8
  store ptr %7, ptr %19, align 8
  store i32 %8, ptr %20, align 4
  store i32 %9, ptr %21, align 4
  store i32 0, ptr %22, align 4
  %24 = load ptr, ptr %12, align 8
  store ptr %24, ptr %23, align 8
  %25 = load ptr, ptr %23, align 8
  %26 = icmp ne ptr %25, null
  br i1 %26, label %31, label %27

27:                                               ; preds = %10
  %28 = call align 16 ptr @llvm.threadlocal.address.p0(ptr align 16 @errStr)
  %29 = getelementptr inbounds [200 x i8], ptr %28, i64 0, i64 0
  %30 = call i32 (ptr, i64, ptr, ...) @snprintf(ptr noundef %29, i64 noundef 200, ptr noundef @.str.4, ptr noundef @tjEncodeYUVPlanes.FUNCTION_NAME) #11
  store i32 -1, ptr %11, align 4
  br label %69

31:                                               ; preds = %10
  %32 = load ptr, ptr %23, align 8
  %33 = getelementptr inbounds %struct._tjinstance, ptr %32, i32 0, i32 2
  %34 = getelementptr inbounds %struct.my_error_mgr, ptr %33, i32 0, i32 3
  store i32 0, ptr %34, align 8
  %35 = load ptr, ptr %23, align 8
  %36 = getelementptr inbounds %struct._tjinstance, ptr %35, i32 0, i32 5
  store i32 0, ptr %36, align 4
  %37 = load i32, ptr %20, align 4
  %38 = icmp slt i32 %37, 0
  br i1 %38, label %42, label %39

39:                                               ; preds = %31
  %40 = load i32, ptr %20, align 4
  %41 = icmp sge i32 %40, 7
  br i1 %41, label %42, label %52

42:                                               ; preds = %39, %31
  %43 = load ptr, ptr %23, align 8
  %44 = getelementptr inbounds %struct._tjinstance, ptr %43, i32 0, i32 4
  %45 = getelementptr inbounds [200 x i8], ptr %44, i64 0, i64 0
  %46 = call i32 (ptr, i64, ptr, ...) @snprintf(ptr noundef %45, i64 noundef 200, ptr noundef @.str, ptr noundef @tjEncodeYUVPlanes.FUNCTION_NAME, ptr noundef @.str.1) #11
  %47 = load ptr, ptr %23, align 8
  %48 = getelementptr inbounds %struct._tjinstance, ptr %47, i32 0, i32 5
  store i32 1, ptr %48, align 4
  %49 = call align 16 ptr @llvm.threadlocal.address.p0(ptr align 16 @errStr)
  %50 = getelementptr inbounds [200 x i8], ptr %49, i64 0, i64 0
  %51 = call i32 (ptr, i64, ptr, ...) @snprintf(ptr noundef %50, i64 noundef 200, ptr noundef @.str, ptr noundef @tjEncodeYUVPlanes.FUNCTION_NAME, ptr noundef @.str.1) #11
  store i32 -1, ptr %22, align 4
  br label %67

52:                                               ; preds = %39
  %53 = load i32, ptr %20, align 4
  %54 = load ptr, ptr %23, align 8
  %55 = getelementptr inbounds %struct._tjinstance, ptr %54, i32 0, i32 9
  store i32 %53, ptr %55, align 4
  %56 = load ptr, ptr %12, align 8
  %57 = load i32, ptr %21, align 4
  call void @processFlags(ptr noundef %56, i32 noundef %57, i32 noundef 1)
  %58 = load ptr, ptr %12, align 8
  %59 = load ptr, ptr %13, align 8
  %60 = load i32, ptr %14, align 4
  %61 = load i32, ptr %15, align 4
  %62 = load i32, ptr %16, align 4
  %63 = load i32, ptr %17, align 4
  %64 = load ptr, ptr %18, align 8
  %65 = load ptr, ptr %19, align 8
  %66 = call i32 @tj3EncodeYUVPlanes8(ptr noundef %58, ptr noundef %59, i32 noundef %60, i32 noundef %61, i32 noundef %62, i32 noundef %63, ptr noundef %64, ptr noundef %65)
  store i32 %66, ptr %11, align 4
  br label %69

67:                                               ; preds = %42
  %68 = load i32, ptr %22, align 4
  store i32 %68, ptr %11, align 4
  br label %69

69:                                               ; preds = %67, %52, %27
  %70 = load i32, ptr %11, align 4
  ret i32 %70
}