; Function Attrs: nounwind uwtable
define range(i32 -1, 1) i32 @tjEncodeYUVPlanes(ptr noundef %0, ptr noundef %1, i32 noundef %2, i32 noundef %3, i32 noundef %4, i32 noundef %5, ptr noundef %6, ptr noundef %7, i32 noundef %8, i32 noundef %9) local_unnamed_addr #0 {
  %.not = icmp eq ptr %0, null
  br i1 %.not, label %11, label %14

11:                                               ; preds = %10
  %12 = tail call align 16 ptr @llvm.threadlocal.address.p0(ptr align 16 @errStr)
  %13 = tail call i32 (ptr, i64, ptr, ...) @snprintf(ptr noundef nonnull dereferenceable(1) %12, i64 noundef 200, ptr noundef nonnull @.str.4, ptr noundef nonnull @tjEncodeYUVPlanes.FUNCTION_NAME) #26
  br label %50

14:                                               ; preds = %10
  %15 = getelementptr inbounds i8, ptr %0, i64 1528
  store i32 0, ptr %15, align 8
  %16 = getelementptr inbounds i8, ptr %0, i64 1740
  store i32 0, ptr %16, align 4
  %or.cond = icmp ugt i32 %8, 6
  br i1 %or.cond, label %17, label %22

17:                                               ; preds = %14
  %18 = getelementptr inbounds i8, ptr %0, i64 1540
  %19 = tail call i32 (ptr, i64, ptr, ...) @snprintf(ptr noundef nonnull dereferenceable(1) %18, i64 noundef 200, ptr noundef nonnull @.str, ptr noundef nonnull @tjEncodeYUVPlanes.FUNCTION_NAME, ptr noundef nonnull @.str.1) #26
  store i32 1, ptr %16, align 4
  %20 = tail call align 16 ptr @llvm.threadlocal.address.p0(ptr align 16 @errStr)
  %21 = tail call i32 (ptr, i64, ptr, ...) @snprintf(ptr noundef nonnull dereferenceable(1) %20, i64 noundef 200, ptr noundef nonnull @.str, ptr noundef nonnull @tjEncodeYUVPlanes.FUNCTION_NAME, ptr noundef nonnull @.str.1) #26
  br label %50

22:                                               ; preds = %14
  %23 = getelementptr inbounds i8, ptr %0, i64 1756
  store i32 %8, ptr %23, align 4
  %24 = lshr i32 %9, 1
  %.lobit.i = and i32 %24, 1
  %25 = getelementptr inbounds i8, ptr %0, i64 1744
  store i32 %.lobit.i, ptr %25, align 8
  %26 = and i32 %9, 8
  %.not.i = icmp eq i32 %26, 0
  br i1 %.not.i, label %27, label %.sink.split.i

27:                                               ; preds = %22
  %28 = and i32 %9, 16
  %.not39.i = icmp eq i32 %28, 0
  br i1 %.not39.i, label %29, label %.sink.split.i

29:                                               ; preds = %27
  %30 = and i32 %9, 32
  %.not40.i = icmp eq i32 %30, 0
  br i1 %.not40.i, label %32, label %.sink.split.i

.sink.split.i:                                    ; preds = %29, %27, %22
  %.str.125.sink.i = phi ptr [ @.str.123, %22 ], [ @.str.125, %27 ], [ @.str.126, %29 ]
  %31 = tail call i32 @setenv(ptr noundef nonnull %.str.125.sink.i, ptr noundef nonnull @.str.124, i32 noundef 1) #26
  br label %32

32:                                               ; preds = %.sink.split.i, %29
  %33 = lshr i32 %9, 8
  %.lobit41.i = and i32 %33, 1
  %34 = getelementptr inbounds i8, ptr %0, i64 1776
  store i32 %.lobit41.i, ptr %34, align 8
  %35 = lshr i32 %9, 10
  %.lobit42.i = and i32 %35, 1
  %36 = getelementptr inbounds i8, ptr %0, i64 1748
  store i32 %.lobit42.i, ptr %36, align 4
  %37 = getelementptr inbounds i8, ptr %0, i64 1752
  %38 = load i32, ptr %37, align 8
  %39 = icmp slt i32 %38, 96
  %40 = and i32 %9, 4096
  %.not44.i = icmp eq i32 %40, 0
  %or.cond.i = and i1 %.not44.i, %39
  %41 = getelementptr inbounds i8, ptr %0, i64 1780
  %. = zext i1 %or.cond.i to i32
  store i32 %., ptr %41, align 4
  %42 = lshr i32 %9, 13
  %.lobit45.i = and i32 %42, 1
  %43 = getelementptr inbounds i8, ptr %0, i64 1532
  store i32 %.lobit45.i, ptr %43, align 4
  %44 = lshr i32 %9, 14
  %.lobit46.i = and i32 %44, 1
  %45 = getelementptr inbounds i8, ptr %0, i64 1788
  store i32 %.lobit46.i, ptr %45, align 4
  %46 = and i32 %9, 32768
  %.not47.i = icmp eq i32 %46, 0
  br i1 %.not47.i, label %processFlags.exit, label %47

47:                                               ; preds = %32
  %48 = getelementptr inbounds i8, ptr %0, i64 1792
  store i32 500, ptr %48, align 8
  br label %processFlags.exit

processFlags.exit:                                ; preds = %32, %47
  %49 = tail call i32 @tj3EncodeYUVPlanes8(ptr noundef nonnull %0, ptr noundef %1, i32 noundef %2, i32 noundef %3, i32 noundef %4, i32 noundef %5, ptr noundef %6, ptr noundef %7)
  br label %50

50:                                               ; preds = %17, %processFlags.exit, %11
  %.0 = phi i32 [ -1, %17 ], [ %49, %processFlags.exit ], [ -1, %11 ]
  ret i32 %.0
}